target datalayout = "e-m:e-p270:32:32-p271:32:32-p272:64:64-i64:64-i128:128-f80:128-n8:16:32:64-S128"
target triple = "x86_64-pc-linux-gnu"

%struct.FT_ListRec_ = type { ptr, ptr }
%struct.FT_CharMapRec_ = type { ptr, i32, i16, i16 }
%struct.T1_FaceRec_ = type { %struct.FT_FaceRec_, %struct.T1_FontRec_, ptr, ptr, ptr, [2 x %struct.FT_CharMapRec_], [2 x ptr], ptr, i32, i32, i32, ptr, ptr }
%struct.FT_FaceRec_ = type { i64, i64, i64, i64, i64, ptr, ptr, i32, ptr, i32, ptr, %struct.FT_Generic_, %struct.FT_BBox_, i16, i16, i16, i16, i16, i16, i16, i16, ptr, ptr, ptr, ptr, ptr, ptr, %struct.FT_ListRec_, %struct.FT_Generic_, ptr, ptr }
%struct.FT_BBox_ = type { i64, i64, i64, i64 }
%struct.FT_Generic_ = type { ptr, ptr }
%struct.T1_FontRec_ = type { %struct.PS_FontInfoRec_, %struct.PS_FontExtraRec_, %struct.PS_PrivateRec_, ptr, i32, %struct.T1_EncodingRecRec_, ptr, ptr, ptr, i32, ptr, ptr, ptr, i32, ptr, ptr, ptr, i8, i8, %struct.FT_Matrix_, %struct.FT_Vector_, %struct.FT_BBox_, i64, i64 }
%struct.PS_FontInfoRec_ = type { ptr, ptr, ptr, ptr, ptr, i64, i8, i16, i16 }
%struct.PS_FontExtraRec_ = type { i16 }
%struct.PS_PrivateRec_ = type { i32, i32, i8, i8, i8, i8, [14 x i16], [10 x i16], [14 x i16], [10 x i16], i64, i32, i32, [1 x i16], [1 x i16], i8, i8, i8, i8, [13 x i16], [13 x i16], i64, i64, i64, [2 x i16] }
%struct.T1_EncodingRecRec_ = type { i32, i32, i32, ptr, ptr }
%struct.FT_Matrix_ = type { i64, i64, i64, i64 }
%struct.FT_Vector_ = type { i64, i64 }
%struct.AFM_FontInfoRec_ = type { i8, %struct.FT_BBox_, i64, i64, ptr, i32, ptr, i32 }

; Function Attrs: nounwind uwtable
define internal void @T1_Done_Metrics(ptr noundef %0, ptr noundef %1) #0 {
  %3 = alloca ptr, align 8
  %4 = alloca ptr, align 8
  store ptr %0, ptr %3, align 8
  store ptr %1, ptr %4, align 8
  br label %5

5:                                                ; preds = %2
  %6 = load ptr, ptr %3, align 8
  %7 = load ptr, ptr %4, align 8
  %8 = getelementptr inbounds %struct.AFM_FontInfoRec_, ptr %7, i32 0, i32 6
  %9 = load ptr, ptr %8, align 8
  call void @ft_mem_free(ptr noundef %6, ptr noundef %9)
  %10 = load ptr, ptr %4, align 8
  %11 = getelementptr inbounds %struct.AFM_FontInfoRec_, ptr %10, i32 0, i32 6
  store ptr null, ptr %11, align 8
  br label %12

12:                                               ; preds = %5
  %13 = load ptr, ptr %4, align 8
  %14 = getelementptr inbounds %struct.AFM_FontInfoRec_, ptr %13, i32 0, i32 7
  store i32 0, ptr %14, align 8
  br label %15

15:                                               ; preds = %12
  %16 = load ptr, ptr %3, align 8
  %17 = load ptr, ptr %4, align 8
  %18 = getelementptr inbounds %struct.AFM_FontInfoRec_, ptr %17, i32 0, i32 4
  %19 = load ptr, ptr %18, align 8
  call void @ft_mem_free(ptr noundef %16, ptr noundef %19)
  %20 = load ptr, ptr %4, align 8
  %21 = getelementptr inbounds %struct.AFM_FontInfoRec_, ptr %20, i32 0, i32 4
  store ptr null, ptr %21, align 8
  br label %22

22:                                               ; preds = %15
  %23 = load ptr, ptr %4, align 8
  %24 = getelementptr inbounds %struct.AFM_FontInfoRec_, ptr %23, i32 0, i32 5
  store i32 0, ptr %24, align 8
  br label %25

25:                                               ; preds = %22
  %26 = load ptr, ptr %3, align 8
  %27 = load ptr, ptr %4, align 8
  call void @ft_mem_free(ptr noundef %26, ptr noundef %27)
  store ptr null, ptr %4, align 8
  br label %28

28:                                               ; preds = %25
  ret void
}

; Function Attrs: nounwind uwtable
define internal void @T1_Face_Done(ptr noundef %0) #0 {
  %2 = alloca ptr, align 8
  %3 = alloca ptr, align 8
  %4 = alloca ptr, align 8
  %5 = alloca ptr, align 8
  %6 = alloca ptr, align 8
  store ptr %0, ptr %2, align 8
  %7 = load ptr, ptr %2, align 8
  store ptr %7, ptr %3, align 8
  %8 = load ptr, ptr %3, align 8
  %9 = icmp ne ptr %8, null
  br i1 %9, label %11, label %10

10:                                               ; preds = %1
  br label %201

11:                                               ; preds = %1
  %12 = load ptr, ptr %3, align 8
  %13 = getelementptr inbounds %struct.T1_FaceRec_, ptr %12, i32 0, i32 0
  %14 = getelementptr inbounds %struct.FT_FaceRec_, ptr %13, i32 0, i32 25
  %15 = load ptr, ptr %14, align 8
  store ptr %15, ptr %4, align 8
  %16 = load ptr, ptr %3, align 8
  %17 = getelementptr inbounds %struct.T1_FaceRec_, ptr %16, i32 0, i32 1
  store ptr %17, ptr %5, align 8
  br label %18

18:                                               ; preds = %11
  br label %19

19:                                               ; preds = %18
  %20 = load ptr, ptr %3, align 8
  %21 = getelementptr inbounds %struct.T1_FaceRec_, ptr %20, i32 0, i32 11
  %22 = load ptr, ptr %21, align 8
  %23 = icmp ne ptr %22, null
  br i1 %23, label %24, label %35

24:                                               ; preds = %19
  br label %25

25:                                               ; preds = %24
  %26 = load ptr, ptr %4, align 8
  %27 = load ptr, ptr %3, align 8
  %28 = getelementptr inbounds %struct.T1_FaceRec_, ptr %27, i32 0, i32 11
  %29 = load ptr, ptr %28, align 8
  call void @ft_mem_free(ptr noundef %26, ptr noundef %29)
  %30 = load ptr, ptr %3, align 8
  %31 = getelementptr inbounds %struct.T1_FaceRec_, ptr %30, i32 0, i32 11
  store ptr null, ptr %31, align 8
  br label %32

32:                                               ; preds = %25
  %33 = load ptr, ptr %3, align 8
  %34 = getelementptr inbounds %struct.T1_FaceRec_, ptr %33, i32 0, i32 10
  store i32 0, ptr %34, align 8
  br label %35

35:                                               ; preds = %32, %19
  %36 = load ptr, ptr %2, align 8
  call void @T1_Done_Blend(ptr noundef %36)
  %37 = load ptr, ptr %3, align 8
  %38 = getelementptr inbounds %struct.T1_FaceRec_, ptr %37, i32 0, i32 7
  store ptr null, ptr %38, align 8
  %39 = load ptr, ptr %5, align 8
  %40 = getelementptr inbounds %struct.T1_FontRec_, ptr %39, i32 0, i32 0
  store ptr %40, ptr %6, align 8
  br label %41

41:                                               ; preds = %35
  %42 = load ptr, ptr %4, align 8
  %43 = load ptr, ptr %6, align 8
  %44 = getelementptr inbounds %struct.PS_FontInfoRec_, ptr %43, i32 0, i32 0
  %45 = load ptr, ptr %44, align 8
  call void @ft_mem_free(ptr noundef %42, ptr noundef %45)
  %46 = load ptr, ptr %6, align 8
  %47 = getelementptr inbounds %struct.PS_FontInfoRec_, ptr %46, i32 0, i32 0
  store ptr null, ptr %47, align 8
  br label %48

48:                                               ; preds = %41
  br label %49

49:                                               ; preds = %48
  %50 = load ptr, ptr %4, align 8
  %51 = load ptr, ptr %6, align 8
  %52 = getelementptr inbounds %struct.PS_FontInfoRec_, ptr %51, i32 0, i32 1
  %53 = load ptr, ptr %52, align 8
  call void @ft_mem_free(ptr noundef %50, ptr noundef %53)
  %54 = load ptr, ptr %6, align 8
  %55 = getelementptr inbounds %struct.PS_FontInfoRec_, ptr %54, i32 0, i32 1
  store ptr null, ptr %55, align 8
  br label %56

56:                                               ; preds = %49
  br label %57

57:                                               ; preds = %56
  %58 = load ptr, ptr %4, align 8
  %59 = load ptr, ptr %6, align 8
  %60 = getelementptr inbounds %struct.PS_FontInfoRec_, ptr %59, i32 0, i32 2
  %61 = load ptr, ptr %60, align 8
  call void @ft_mem_free(ptr noundef %58, ptr noundef %61)
  %62 = load ptr, ptr %6, align 8
  %63 = getelementptr inbounds %struct.PS_FontInfoRec_, ptr %62, i32 0, i32 2
  store ptr null, ptr %63, align 8
  br label %64

64:                                               ; preds = %57
  br label %65

65:                                               ; preds = %64
  %66 = load ptr, ptr %4, align 8
  %67 = load ptr, ptr %6, align 8
  %68 = getelementptr inbounds %struct.PS_FontInfoRec_, ptr %67, i32 0, i32 3
  %69 = load ptr, ptr %68, align 8
  call void @ft_mem_free(ptr noundef %66, ptr noundef %69)
  %70 = load ptr, ptr %6, align 8
  %71 = getelementptr inbounds %struct.PS_FontInfoRec_, ptr %70, i32 0, i32 3
  store ptr null, ptr %71, align 8
  br label %72

72:                                               ; preds = %65
  br label %73

73:                                               ; preds = %72
  %74 = load ptr, ptr %4, align 8
  %75 = load ptr, ptr %6, align 8
  %76 = getelementptr inbounds %struct.PS_FontInfoRec_, ptr %75, i32 0, i32 4
  %77 = load ptr, ptr %76, align 8
  call void @ft_mem_free(ptr noundef %74, ptr noundef %77)
  %78 = load ptr, ptr %6, align 8
  %79 = getelementptr inbounds %struct.PS_FontInfoRec_, ptr %78, i32 0, i32 4
  store ptr null, ptr %79, align 8
  br label %80

80:                                               ; preds = %73
  br label %81

81:                                               ; preds = %80
  %82 = load ptr, ptr %4, align 8
  %83 = load ptr, ptr %5, align 8
  %84 = getelementptr inbounds %struct.T1_FontRec_, ptr %83, i32 0, i32 16
  %85 = load ptr, ptr %84, align 8
  call void @ft_mem_free(ptr noundef %82, ptr noundef %85)
  %86 = load ptr, ptr %5, align 8
  %87 = getelementptr inbounds %struct.T1_FontRec_, ptr %86, i32 0, i32 16
  store ptr null, ptr %87, align 8
  br label %88

88:                                               ; preds = %81
  br label %89

89:                                               ; preds = %88
  %90 = load ptr, ptr %4, align 8
  %91 = load ptr, ptr %5, align 8
  %92 = getelementptr inbounds %struct.T1_FontRec_, ptr %91, i32 0, i32 15
  %93 = load ptr, ptr %92, align 8
  call void @ft_mem_free(ptr noundef %90, ptr noundef %93)
  %94 = load ptr, ptr %5, align 8
  %95 = getelementptr inbounds %struct.T1_FontRec_, ptr %94, i32 0, i32 15
  store ptr null, ptr %95, align 8
  br label %96

96:                                               ; preds = %89
  br label %97

97:                                               ; preds = %96
  %98 = load ptr, ptr %4, align 8
  %99 = load ptr, ptr %5, align 8
  %100 = getelementptr inbounds %struct.T1_FontRec_, ptr %99, i32 0, i32 14
  %101 = load ptr, ptr %100, align 8
  call void @ft_mem_free(ptr noundef %98, ptr noundef %101)
  %102 = load ptr, ptr %5, align 8
  %103 = getelementptr inbounds %struct.T1_FontRec_, ptr %102, i32 0, i32 14
  store ptr null, ptr %103, align 8
  br label %104

104:                                              ; preds = %97
  br label %105

105:                                              ; preds = %104
  %106 = load ptr, ptr %4, align 8
  %107 = load ptr, ptr %5, align 8
  %108 = getelementptr inbounds %struct.T1_FontRec_, ptr %107, i32 0, i32 10
  %109 = load ptr, ptr %108, align 8
  call void @ft_mem_free(ptr noundef %106, ptr noundef %109)
  %110 = load ptr, ptr %5, align 8
  %111 = getelementptr inbounds %struct.T1_FontRec_, ptr %110, i32 0, i32 10
  store ptr null, ptr %111, align 8
  br label %112

112:                                              ; preds = %105
  br label %113

113:                                              ; preds = %112
  %114 = load ptr, ptr %4, align 8
  %115 = load ptr, ptr %5, align 8
  %116 = getelementptr inbounds %struct.T1_FontRec_, ptr %115, i32 0, i32 11
  %117 = load ptr, ptr %116, align 8
  call void @ft_mem_free(ptr noundef %114, ptr noundef %117)
  %118 = load ptr, ptr %5, align 8
  %119 = getelementptr inbounds %struct.T1_FontRec_, ptr %118, i32 0, i32 11
  store ptr null, ptr %119, align 8
  br label %120

120:                                              ; preds = %113
  %121 = load ptr, ptr %5, align 8
  %122 = getelementptr inbounds %struct.T1_FontRec_, ptr %121, i32 0, i32 12
  %123 = load ptr, ptr %122, align 8
  %124 = load ptr, ptr %4, align 8
  call void @ft_hash_str_free(ptr noundef %123, ptr noundef %124)
  br label %125

125:                                              ; preds = %120
  %126 = load ptr, ptr %4, align 8
  %127 = load ptr, ptr %5, align 8
  %128 = getelementptr inbounds %struct.T1_FontRec_, ptr %127, i32 0, i32 12
  %129 = load ptr, ptr %128, align 8
  call void @ft_mem_free(ptr noundef %126, ptr noundef %129)
  %130 = load ptr, ptr %5, align 8
  %131 = getelementptr inbounds %struct.T1_FontRec_, ptr %130, i32 0, i32 12
  store ptr null, ptr %131, align 8
  br label %132

132:                                              ; preds = %125
  br label %133

133:                                              ; preds = %132
  %134 = load ptr, ptr %4, align 8
  %135 = load ptr, ptr %5, align 8
  %136 = getelementptr inbounds %struct.T1_FontRec_, ptr %135, i32 0, i32 6
  %137 = load ptr, ptr %136, align 8
  call void @ft_mem_free(ptr noundef %134, ptr noundef %137)
  %138 = load ptr, ptr %5, align 8
  %139 = getelementptr inbounds %struct.T1_FontRec_, ptr %138, i32 0, i32 6
  store ptr null, ptr %139, align 8
  br label %140

140:                                              ; preds = %133
  br label %141

141:                                              ; preds = %140
  %142 = load ptr, ptr %4, align 8
  %143 = load ptr, ptr %5, align 8
  %144 = getelementptr inbounds %struct.T1_FontRec_, ptr %143, i32 0, i32 7
  %145 = load ptr, ptr %144, align 8
  call void @ft_mem_free(ptr noundef %142, ptr noundef %145)
  %146 = load ptr, ptr %5, align 8
  %147 = getelementptr inbounds %struct.T1_FontRec_, ptr %146, i32 0, i32 7
  store ptr null, ptr %147, align 8
  br label %148

148:                                              ; preds = %141
  br label %149

149:                                              ; preds = %148
  %150 = load ptr, ptr %4, align 8
  %151 = load ptr, ptr %5, align 8
  %152 = getelementptr inbounds %struct.T1_FontRec_, ptr %151, i32 0, i32 8
  %153 = load ptr, ptr %152, align 8
  call void @ft_mem_free(ptr noundef %150, ptr noundef %153)
  %154 = load ptr, ptr %5, align 8
  %155 = getelementptr inbounds %struct.T1_FontRec_, ptr %154, i32 0, i32 8
  store ptr null, ptr %155, align 8
  br label %156

156:                                              ; preds = %149
  br label %157

157:                                              ; preds = %156
  %158 = load ptr, ptr %4, align 8
  %159 = load ptr, ptr %5, align 8
  %160 = getelementptr inbounds %struct.T1_FontRec_, ptr %159, i32 0, i32 5
  %161 = getelementptr inbounds %struct.T1_EncodingRecRec_, ptr %160, i32 0, i32 3
  %162 = load ptr, ptr %161, align 8
  call void @ft_mem_free(ptr noundef %158, ptr noundef %162)
  %163 = load ptr, ptr %5, align 8
  %164 = getelementptr inbounds %struct.T1_FontRec_, ptr %163, i32 0, i32 5
  %165 = getelementptr inbounds %struct.T1_EncodingRecRec_, ptr %164, i32 0, i32 3
  store ptr null, ptr %165, align 8
  br label %166

166:                                              ; preds = %157
  br label %167

167:                                              ; preds = %166
  %168 = load ptr, ptr %4, align 8
  %169 = load ptr, ptr %5, align 8
  %170 = getelementptr inbounds %struct.T1_FontRec_, ptr %169, i32 0, i32 5
  %171 = getelementptr inbounds %struct.T1_EncodingRecRec_, ptr %170, i32 0, i32 4
  %172 = load ptr, ptr %171, align 8
  call void @ft_mem_free(ptr noundef %168, ptr noundef %172)
  %173 = load ptr, ptr %5, align 8
  %174 = getelementptr inbounds %struct.T1_FontRec_, ptr %173, i32 0, i32 5
  %175 = getelementptr inbounds %struct.T1_EncodingRecRec_, ptr %174, i32 0, i32 4
  store ptr null, ptr %175, align 8
  br label %176

176:                                              ; preds = %167
  br label %177

177:                                              ; preds = %176
  %178 = load ptr, ptr %4, align 8
  %179 = load ptr, ptr %5, align 8
  %180 = getelementptr inbounds %struct.T1_FontRec_, ptr %179, i32 0, i32 3
  %181 = load ptr, ptr %180, align 8
  call void @ft_mem_free(ptr noundef %178, ptr noundef %181)
  %182 = load ptr, ptr %5, align 8
  %183 = getelementptr inbounds %struct.T1_FontRec_, ptr %182, i32 0, i32 3
  store ptr null, ptr %183, align 8
  br label %184

184:                                              ; preds = %177
  %185 = load ptr, ptr %3, align 8
  %186 = getelementptr inbounds %struct.T1_FaceRec_, ptr %185, i32 0, i32 4
  %187 = load ptr, ptr %186, align 8
  %188 = icmp ne ptr %187, null
  br i1 %188, label %189, label %194

189:                                              ; preds = %184
  %190 = load ptr, ptr %4, align 8
  %191 = load ptr, ptr %3, align 8
  %192 = getelementptr inbounds %struct.T1_FaceRec_, ptr %191, i32 0, i32 4
  %193 = load ptr, ptr %192, align 8
  call void @T1_Done_Metrics(ptr noundef %190, ptr noundef %193)
  br label %194

194:                                              ; preds = %189, %184
  %195 = load ptr, ptr %3, align 8
  %196 = getelementptr inbounds %struct.T1_FaceRec_, ptr %195, i32 0, i32 0
  %197 = getelementptr inbounds %struct.FT_FaceRec_, ptr %196, i32 0, i32 5
  store ptr null, ptr %197, align 8
  %198 = load ptr, ptr %3, align 8
  %199 = getelementptr inbounds %struct.T1_FaceRec_, ptr %198, i32 0, i32 0
  %200 = getelementptr inbounds %struct.FT_FaceRec_, ptr %199, i32 0, i32 6
  store ptr null, ptr %200, align 8
  br label %201

201:                                              ; preds = %194, %10
  ret void
}