; Function Attrs: nounwind uwtable
define internal void @T1_Face_Done(ptr noundef %0) #2 {
  %.not = icmp eq ptr %0, null
  br i1 %.not, label %57, label %2

2:                                                ; preds = %1
  %3 = getelementptr inbounds i8, ptr %0, i64 184
  %4 = load ptr, ptr %3, align 8
  %5 = getelementptr inbounds i8, ptr %0, i64 248
  %6 = getelementptr inbounds i8, ptr %0, i64 872
  %7 = load ptr, ptr %6, align 8
  %.not72 = icmp eq ptr %7, null
  br i1 %.not72, label %10, label %8

8:                                                ; preds = %2
  tail call void @ft_mem_free(ptr noundef %4, ptr noundef nonnull %7) #16
  store ptr null, ptr %6, align 8
  %9 = getelementptr inbounds i8, ptr %0, i64 864
  store i32 0, ptr %9, align 8
  br label %10

10:                                               ; preds = %8, %2
  tail call void @T1_Done_Blend(ptr noundef nonnull %0)
  %11 = getelementptr inbounds i8, ptr %0, i64 848
  store ptr null, ptr %11, align 8
  %12 = load ptr, ptr %5, align 8
  tail call void @ft_mem_free(ptr noundef %4, ptr noundef %12) #16
  store ptr null, ptr %5, align 8
  %13 = getelementptr inbounds i8, ptr %0, i64 256
  %14 = load ptr, ptr %13, align 8
  tail call void @ft_mem_free(ptr noundef %4, ptr noundef %14) #16
  store ptr null, ptr %13, align 8
  %15 = getelementptr inbounds i8, ptr %0, i64 264
  %16 = load ptr, ptr %15, align 8
  tail call void @ft_mem_free(ptr noundef %4, ptr noundef %16) #16
  store ptr null, ptr %15, align 8
  %17 = getelementptr inbounds i8, ptr %0, i64 272
  %18 = load ptr, ptr %17, align 8
  tail call void @ft_mem_free(ptr noundef %4, ptr noundef %18) #16
  store ptr null, ptr %17, align 8
  %19 = getelementptr inbounds i8, ptr %0, i64 280
  %20 = load ptr, ptr %19, align 8
  tail call void @ft_mem_free(ptr noundef %4, ptr noundef %20) #16
  store ptr null, ptr %19, align 8
  %21 = getelementptr inbounds i8, ptr %0, i64 664
  %22 = load ptr, ptr %21, align 8
  tail call void @ft_mem_free(ptr noundef %4, ptr noundef %22) #16
  store ptr null, ptr %21, align 8
  %23 = getelementptr inbounds i8, ptr %0, i64 656
  %24 = load ptr, ptr %23, align 8
  tail call void @ft_mem_free(ptr noundef %4, ptr noundef %24) #16
  store ptr null, ptr %23, align 8
  %25 = getelementptr inbounds i8, ptr %0, i64 648
  %26 = load ptr, ptr %25, align 8
  tail call void @ft_mem_free(ptr noundef %4, ptr noundef %26) #16
  store ptr null, ptr %25, align 8
  %27 = getelementptr inbounds i8, ptr %0, i64 616
  %28 = load ptr, ptr %27, align 8
  tail call void @ft_mem_free(ptr noundef %4, ptr noundef %28) #16
  store ptr null, ptr %27, align 8
  %29 = getelementptr inbounds i8, ptr %0, i64 624
  %30 = load ptr, ptr %29, align 8
  tail call void @ft_mem_free(ptr noundef %4, ptr noundef %30) #16
  store ptr null, ptr %29, align 8
  %31 = getelementptr inbounds i8, ptr %0, i64 632
  %32 = load ptr, ptr %31, align 8
  tail call void @ft_hash_str_free(ptr noundef %32, ptr noundef %4) #16
  %33 = load ptr, ptr %31, align 8
  tail call void @ft_mem_free(ptr noundef %4, ptr noundef %33) #16
  store ptr null, ptr %31, align 8
  %34 = getelementptr inbounds i8, ptr %0, i64 584
  %35 = load ptr, ptr %34, align 8
  tail call void @ft_mem_free(ptr noundef %4, ptr noundef %35) #16
  store ptr null, ptr %34, align 8
  %36 = getelementptr inbounds i8, ptr %0, i64 592
  %37 = load ptr, ptr %36, align 8
  tail call void @ft_mem_free(ptr noundef %4, ptr noundef %37) #16
  store ptr null, ptr %36, align 8
  %38 = getelementptr inbounds i8, ptr %0, i64 600
  %39 = load ptr, ptr %38, align 8
  tail call void @ft_mem_free(ptr noundef %4, ptr noundef %39) #16
  store ptr null, ptr %38, align 8
  %40 = getelementptr inbounds i8, ptr %0, i64 568
  %41 = load ptr, ptr %40, align 8
  tail call void @ft_mem_free(ptr noundef %4, ptr noundef %41) #16
  store ptr null, ptr %40, align 8
  %42 = getelementptr inbounds i8, ptr %0, i64 576
  %43 = load ptr, ptr %42, align 8
  tail call void @ft_mem_free(ptr noundef %4, ptr noundef %43) #16
  store ptr null, ptr %42, align 8
  %44 = getelementptr inbounds i8, ptr %0, i64 536
  %45 = load ptr, ptr %44, align 8
  tail call void @ft_mem_free(ptr noundef %4, ptr noundef %45) #16
  store ptr null, ptr %44, align 8
  %46 = getelementptr inbounds i8, ptr %0, i64 792
  %47 = load ptr, ptr %46, align 8
  %.not73 = icmp eq ptr %47, null
  br i1 %.not73, label %55, label %48

48:                                               ; preds = %10
  %49 = getelementptr inbounds i8, ptr %47, i64 72
  %50 = load ptr, ptr %49, align 8
  tail call void @ft_mem_free(ptr noundef %4, ptr noundef %50) #16
  store ptr null, ptr %49, align 8
  %51 = getelementptr inbounds i8, ptr %47, i64 80
  store i32 0, ptr %51, align 8
  %52 = getelementptr inbounds i8, ptr %47, i64 56
  %53 = load ptr, ptr %52, align 8
  tail call void @ft_mem_free(ptr noundef %4, ptr noundef %53) #16
  store ptr null, ptr %52, align 8
  %54 = getelementptr inbounds i8, ptr %47, i64 64
  store i32 0, ptr %54, align 8
  tail call void @ft_mem_free(ptr noundef %4, ptr noundef nonnull %47) #16
  br label %55

55:                                               ; preds = %48, %10
  %56 = getelementptr inbounds i8, ptr %0, i64 40
  tail call void @llvm.memset.p0.i64(ptr noundef nonnull align 8 dereferenceable(16) %56, i8 0, i64 16, i1 false)
  br label %57

57:                                               ; preds = %1, %55
  ret void
}